target datalayout = "e-m:e-p270:32:32-p271:32:32-p272:64:64-i64:64-i128:128-f80:128-n8:16:32:64-S128"
target triple = "x86_64-pc-linux-gnu"

%struct.CRYPTO_REF_COUNT = type { i32 }
%struct.bio_method_st = type { i32, ptr, ptr, ptr, ptr, ptr, ptr, ptr, ptr, ptr, ptr, ptr, ptr, ptr }
%struct.bio_st = type { ptr, ptr, ptr, ptr, ptr, i32, i32, i32, i32, i32, ptr, ptr, ptr, %struct.CRYPTO_REF_COUNT, i64, i64, %struct.crypto_ex_data_st }
%struct.crypto_ex_data_st = type { ptr, ptr }

; Function Attrs: nounwind uwtable
define i32 @bread_conv(ptr noundef %0, ptr noundef %1, i64 noundef %2, ptr noundef %3) #0 {
  %5 = alloca i32, align 4
  %6 = alloca ptr, align 8
  %7 = alloca ptr, align 8
  %8 = alloca i64, align 8
  %9 = alloca ptr, align 8
  %10 = alloca i32, align 4
  %11 = alloca i32, align 4
  store ptr %0, ptr %6, align 8, !tbaa !20
  store ptr %1, ptr %7, align 8, !tbaa !11
  store i64 %2, ptr %8, align 8, !tbaa !22
  store ptr %3, ptr %9, align 8, !tbaa !24
  call void @llvm.lifetime.start.p0(i64 4, ptr %10) #4
  %12 = load i64, ptr %8, align 8, !tbaa !22
  %13 = icmp ugt i64 %12, 2147483647
  br i1 %13, label %14, label %15

14:                                               ; preds = %4
  store i64 2147483647, ptr %8, align 8, !tbaa !22
  br label %15

15:                                               ; preds = %14, %4
  %16 = load ptr, ptr %6, align 8, !tbaa !20
  %17 = getelementptr inbounds nuw %struct.bio_st, ptr %16, i32 0, i32 1
  %18 = load ptr, ptr %17, align 8, !tbaa !26
  %19 = getelementptr inbounds nuw %struct.bio_method_st, ptr %18, i32 0, i32 5
  %20 = load ptr, ptr %19, align 8, !tbaa !32
  %21 = load ptr, ptr %6, align 8, !tbaa !20
  %22 = load ptr, ptr %7, align 8, !tbaa !11
  %23 = load i64, ptr %8, align 8, !tbaa !22
  %24 = trunc i64 %23 to i32
  %25 = call i32 %20(ptr noundef %21, ptr noundef %22, i32 noundef %24)
  store i32 %25, ptr %10, align 4, !tbaa !3
  %26 = load i32, ptr %10, align 4, !tbaa !3
  %27 = icmp sle i32 %26, 0
  br i1 %27, label %28, label %31

28:                                               ; preds = %15
  %29 = load ptr, ptr %9, align 8, !tbaa !24
  store i64 0, ptr %29, align 8, !tbaa !22
  %30 = load i32, ptr %10, align 4, !tbaa !3
  store i32 %30, ptr %5, align 4
  store i32 1, ptr %11, align 4
  br label %35

31:                                               ; preds = %15
  %32 = load i32, ptr %10, align 4, !tbaa !3
  %33 = sext i32 %32 to i64
  %34 = load ptr, ptr %9, align 8, !tbaa !24
  store i64 %33, ptr %34, align 8, !tbaa !22
  store i32 1, ptr %5, align 4
  store i32 1, ptr %11, align 4
  br label %35

35:                                               ; preds = %31, %28
  call void @llvm.lifetime.end.p0(i64 4, ptr %10) #4
  %36 = load i32, ptr %5, align 4
  ret i32 %36
}